; Function Attrs: mustprogress nounwind uwtable
define internal void @_ZN3ade7details8Metadata14MetadataHolderIN12_GLOBAL__N_110PythonUnitEED2Ev(ptr noundef nonnull align 8 dereferenceable(80) %0) unnamed_addr #4 align 2 personality ptr @__gxx_personality_v0 {
  store ptr getelementptr inbounds inrange(-16, 24) (i8, ptr @_ZTVN3ade7details8Metadata14MetadataHolderIN12_GLOBAL__N_110PythonUnitEEE, i64 16), ptr %0, align 8
  %2 = getelementptr inbounds i8, ptr %0, i64 8
  %3 = getelementptr inbounds i8, ptr %0, i64 56
  %4 = load ptr, ptr %3, align 8
  %.not.i.i.i.i = icmp eq ptr %4, null
  br i1 %.not.i.i.i.i, label %_ZNSt8functionIFN2cv4GArgERKSt6vectorINS0_4util7variantIJNS3_9monostateENS0_8GMatDescENS0_11GScalarDescENS0_10GArrayDescENS0_11GOpaqueDescENS0_10GFrameDescEEEESaISB_EERKS2_IS1_SaIS1_EEEED2Ev.exit.i.i, label %5

5:                                                ; preds = %1
  %6 = getelementptr inbounds i8, ptr %0, i64 40
  %7 = invoke noundef zeroext i1 %4(ptr noundef nonnull align 8 dereferenceable(16) %6, ptr noundef nonnull align 8 dereferenceable(16) %6, i32 noundef 3)
          to label %_ZNSt8functionIFN2cv4GArgERKSt6vectorINS0_4util7variantIJNS3_9monostateENS0_8GMatDescENS0_11GScalarDescENS0_10GArrayDescENS0_11GOpaqueDescENS0_10GFrameDescEEEESaISB_EERKS2_IS1_SaIS1_EEEED2Ev.exit.i.i unwind label %8

8:                                                ; preds = %5
  %9 = landingpad { ptr, i32 }
          catch ptr null
  %10 = extractvalue { ptr, i32 } %9, 0
  tail call void @__clang_call_terminate(ptr %10) #23
  unreachable

_ZNSt8functionIFN2cv4GArgERKSt6vectorINS0_4util7variantIJNS3_9monostateENS0_8GMatDescENS0_11GScalarDescENS0_10GArrayDescENS0_11GOpaqueDescENS0_10GFrameDescEEEESaISB_EERKS2_IS1_SaIS1_EEEED2Ev.exit.i.i: ; preds = %5, %1
  %11 = getelementptr inbounds i8, ptr %0, i64 24
  %12 = load ptr, ptr %11, align 8
  %.not.i.i1.i.i = icmp eq ptr %12, null
  br i1 %.not.i.i1.i.i, label %_ZN12_GLOBAL__N_110PythonUnitD2Ev.exit, label %13

13:                                               ; preds = %_ZNSt8functionIFN2cv4GArgERKSt6vectorINS0_4util7variantIJNS3_9monostateENS0_8GMatDescENS0_11GScalarDescENS0_10GArrayDescENS0_11GOpaqueDescENS0_10GFrameDescEEEESaISB_EERKS2_IS1_SaIS1_EEEED2Ev.exit.i.i
  %14 = invoke noundef zeroext i1 %12(ptr noundef nonnull align 8 dereferenceable(16) %2, ptr noundef nonnull align 8 dereferenceable(16) %2, i32 noundef 3)
          to label %_ZN12_GLOBAL__N_110PythonUnitD2Ev.exit unwind label %15

15:                                               ; preds = %13
  %16 = landingpad { ptr, i32 }
          catch ptr null
  %17 = extractvalue { ptr, i32 } %16, 0
  tail call void @__clang_call_terminate(ptr %17) #23
  unreachable

_ZN12_GLOBAL__N_110PythonUnitD2Ev.exit:           ; preds = %_ZNSt8functionIFN2cv4GArgERKSt6vectorINS0_4util7variantIJNS3_9monostateENS0_8GMatDescENS0_11GScalarDescENS0_10GArrayDescENS0_11GOpaqueDescENS0_10GFrameDescEEEESaISB_EERKS2_IS1_SaIS1_EEEED2Ev.exit.i.i, %13
  ret void
}